; Function Attrs: mustprogress nofree norecurse nosync nounwind willreturn memory(read, inaccessiblemem: none) uwtable
define dso_local noundef i32 @_ZNK4base9Histogram12bucket_countEv(ptr nocapture noundef nonnull readonly align 8 dereferenceable(81) %this) unnamed_addr #9 align 2 {
entry:
  %bucket_ranges_ = getelementptr inbounds i8, ptr %this, i64 48
  %0 = load ptr, ptr %bucket_ranges_, align 8
  %_M_finish.i.i = getelementptr inbounds i8, ptr %0, i64 8
  %1 = load ptr, ptr %_M_finish.i.i, align 8
  %2 = load ptr, ptr %0, align 8
  %sub.ptr.lhs.cast.i.i = ptrtoint ptr %1 to i64
  %sub.ptr.rhs.cast.i.i = ptrtoint ptr %2 to i64
  %sub.ptr.sub.i.i = sub i64 %sub.ptr.lhs.cast.i.i, %sub.ptr.rhs.cast.i.i
  %sub.ptr.div.i.i = lshr exact i64 %sub.ptr.sub.i.i, 2
  %3 = trunc i64 %sub.ptr.div.i.i to i32
  %conv = add i32 %3, -1
  ret i32 %conv
}